target datalayout = "e-m:e-p270:32:32-p271:32:32-p272:64:64-i64:64-i128:128-f80:128-n8:16:32:64-S128"
target triple = "x86_64-pc-linux-gnu"

%"struct.llvm::EVT" = type { %"class.llvm::MVT", ptr }
%"class.llvm::MVT" = type { i16 }
%"struct.llvm::Align" = type { i8 }
%"struct.llvm::MachinePointerInfo" = type <{ %"class.llvm::PointerUnion", i64, i32, i8, [3 x i8] }>
%"class.llvm::PointerUnion" = type { %"class.llvm::pointer_union_detail::PointerUnionMembers" }
%"class.llvm::pointer_union_detail::PointerUnionMembers" = type { %"class.llvm::pointer_union_detail::PointerUnionMembers.208" }
%"class.llvm::pointer_union_detail::PointerUnionMembers.208" = type { %"class.llvm::pointer_union_detail::PointerUnionMembers.209" }
%"class.llvm::pointer_union_detail::PointerUnionMembers.209" = type { %"class.llvm::PointerIntPair.210" }
%"class.llvm::PointerIntPair.210" = type { %"struct.llvm::detail::PunnedPointer.211" }
%"struct.llvm::detail::PunnedPointer.211" = type { [8 x i8] }
%"struct.llvm::AAMDNodes" = type { ptr, ptr, ptr, ptr }
%"class.llvm::MachineMemOperand" = type { %"struct.llvm::MachinePointerInfo", %"class.llvm::LLT", i16, %"struct.llvm::Align", %"struct.llvm::MachineMemOperand::MachineAtomicInfo", %"struct.llvm::AAMDNodes", ptr }
%"class.llvm::LLT" = type { i64 }
%"struct.llvm::MachineMemOperand::MachineAtomicInfo" = type { i16, [2 x i8] }

; Function Attrs: mustprogress nounwind uwtable
define linkonce_odr hidden noundef zeroext i16 @_ZNK4llvm17MachineMemOperand8getFlagsEv(ptr noundef nonnull align 8 dereferenceable(80) %0) #1 comdat align 2 {
  %2 = alloca ptr, align 8
  store ptr %0, ptr %2, align 8
  %3 = load ptr, ptr %2, align 8
  %4 = getelementptr inbounds nuw %"class.llvm::MachineMemOperand", ptr %3, i32 0, i32 2
  %5 = load i16, ptr %4, align 8
  ret i16 %5
}

; Function Attrs: mustprogress nounwind uwtable
define linkonce_odr hidden noundef i32 @_ZNK4llvm17MachineMemOperand12getAddrSpaceEv(ptr noundef nonnull align 8 dereferenceable(80) %0) #1 comdat align 2 {
  %2 = alloca ptr, align 8
  store ptr %0, ptr %2, align 8
  %3 = load ptr, ptr %2, align 8
  %4 = getelementptr inbounds nuw %"class.llvm::MachineMemOperand", ptr %3, i32 0, i32 0
  %5 = call noundef i32 @_ZNK4llvm18MachinePointerInfo12getAddrSpaceEv(ptr noundef nonnull align 8 dereferenceable(21) %4)
  ret i32 %5
}

; Function Attrs: mustprogress nounwind uwtable
define dso_local noundef zeroext i1 @_ZNK4llvm18TargetLoweringBase18allowsMemoryAccessERNS_11LLVMContextERKNS_10DataLayoutENS_3LLTERKNS_17MachineMemOperandEPj(ptr noundef nonnull align 8 dereferenceable(408123) %0, ptr noundef nonnull align 8 dereferenceable(8) %1, ptr noundef nonnull align 8 dereferenceable(512) %2, i64 %3, ptr noundef nonnull align 8 dereferenceable(80) %4, ptr noundef %5) #1 align 2 {
  %7 = alloca %"class.llvm::LLT", align 8
  %8 = alloca ptr, align 8
  %9 = alloca ptr, align 8
  %10 = alloca ptr, align 8
  %11 = alloca ptr, align 8
  %12 = alloca ptr, align 8
  %13 = alloca %"struct.llvm::EVT", align 8
  %14 = alloca %"class.llvm::LLT", align 8
  %15 = alloca %"struct.llvm::EVT", align 8
  %16 = alloca %"struct.llvm::Align", align 1
  %17 = getelementptr inbounds nuw %"class.llvm::LLT", ptr %7, i32 0, i32 0
  store i64 %3, ptr %17, align 8
  store ptr %0, ptr %8, align 8
  store ptr %1, ptr %9, align 8
  store ptr %2, ptr %10, align 8
  store ptr %4, ptr %11, align 8
  store ptr %5, ptr %12, align 8
  %18 = load ptr, ptr %8, align 8
  call void @llvm.memcpy.p0.p0.i64(ptr align 8 %14, ptr align 8 %7, i64 8, i1 false)
  %19 = load ptr, ptr %10, align 8
  %20 = load ptr, ptr %9, align 8
  %21 = getelementptr inbounds nuw %"class.llvm::LLT", ptr %14, i32 0, i32 0
  %22 = load i64, ptr %21, align 8
  %23 = call { i16, ptr } @_ZN4llvm23getApproximateEVTForLLTENS_3LLTERKNS_10DataLayoutERNS_11LLVMContextE(i64 %22, ptr noundef nonnull align 8 dereferenceable(512) %19, ptr noundef nonnull align 8 dereferenceable(8) %20)
  %24 = getelementptr inbounds nuw { i16, ptr }, ptr %13, i32 0, i32 0
  %25 = extractvalue { i16, ptr } %23, 0
  store i16 %25, ptr %24, align 8
  %26 = getelementptr inbounds nuw { i16, ptr }, ptr %13, i32 0, i32 1
  %27 = extractvalue { i16, ptr } %23, 1
  store ptr %27, ptr %26, align 8
  %28 = load ptr, ptr %9, align 8
  %29 = load ptr, ptr %10, align 8
  call void @llvm.memcpy.p0.p0.i64(ptr align 8 %15, ptr align 8 %13, i64 16, i1 false)
  %30 = load ptr, ptr %11, align 8
  %31 = call noundef i32 @_ZNK4llvm17MachineMemOperand12getAddrSpaceEv(ptr noundef nonnull align 8 dereferenceable(80) %30)
  %32 = load ptr, ptr %11, align 8
  %33 = call i8 @_ZNK4llvm17MachineMemOperand8getAlignEv(ptr noundef nonnull align 8 dereferenceable(80) %32)
  %34 = getelementptr inbounds nuw %"struct.llvm::Align", ptr %16, i32 0, i32 0
  store i8 %33, ptr %34, align 1
  %35 = load ptr, ptr %11, align 8
  %36 = call noundef zeroext i16 @_ZNK4llvm17MachineMemOperand8getFlagsEv(ptr noundef nonnull align 8 dereferenceable(80) %35)
  %37 = load ptr, ptr %12, align 8
  %38 = getelementptr inbounds nuw { i16, ptr }, ptr %15, i32 0, i32 0
  %39 = load i16, ptr %38, align 8
  %40 = getelementptr inbounds nuw { i16, ptr }, ptr %15, i32 0, i32 1
  %41 = load ptr, ptr %40, align 8
  %42 = getelementptr inbounds nuw %"struct.llvm::Align", ptr %16, i32 0, i32 0
  %43 = load i8, ptr %42, align 1
  %44 = load ptr, ptr %18, align 8
  %45 = getelementptr inbounds ptr, ptr %44, i64 102
  %46 = load ptr, ptr %45, align 8
  %47 = call noundef zeroext i1 %46(ptr noundef nonnull align 8 dereferenceable(408123) %18, ptr noundef nonnull align 8 dereferenceable(8) %28, ptr noundef nonnull align 8 dereferenceable(512) %29, i16 %39, ptr %41, i32 noundef %31, i8 %43, i16 noundef zeroext %36, ptr noundef %37)
  ret i1 %47
}