; Function Attrs: mustprogress nounwind uwtable
define dso_local noundef zeroext i1 @_ZNK4llvm18TargetLoweringBase18allowsMemoryAccessERNS_11LLVMContextERKNS_10DataLayoutENS_3LLTERKNS_17MachineMemOperandEPj(ptr noundef nonnull align 8 dereferenceable(408123) %0, ptr noundef nonnull align 8 dereferenceable(8) %1, ptr noundef nonnull align 8 dereferenceable(512) %2, i64 %3, ptr noundef nonnull align 8 dereferenceable(80) %4, ptr noundef %5) local_unnamed_addr #0 align 2 {
  %7 = tail call { i16, ptr } @_ZN4llvm23getApproximateEVTForLLTENS_3LLTERKNS_10DataLayoutERNS_11LLVMContextE(i64 %3, ptr noundef nonnull align 8 dereferenceable(512) %2, ptr noundef nonnull align 8 dereferenceable(8) %1) #26
  %8 = extractvalue { i16, ptr } %7, 0
  %9 = extractvalue { i16, ptr } %7, 1
  %10 = tail call noundef i32 @_ZNK4llvm18MachinePointerInfo12getAddrSpaceEv(ptr noundef nonnull align 8 dereferenceable(21) %4) #26
  %11 = tail call i8 @_ZNK4llvm17MachineMemOperand8getAlignEv(ptr noundef nonnull align 8 dereferenceable(80) %4) #26
  %12 = getelementptr inbounds nuw i8, ptr %4, i64 32
  %13 = load i16, ptr %12, align 8
  %14 = load ptr, ptr %0, align 8
  %15 = getelementptr inbounds i8, ptr %14, i64 816
  %16 = load ptr, ptr %15, align 8
  %17 = tail call noundef zeroext i1 %16(ptr noundef nonnull align 8 dereferenceable(408123) %0, ptr noundef nonnull align 8 dereferenceable(8) %1, ptr noundef nonnull align 8 dereferenceable(512) %2, i16 %8, ptr %9, i32 noundef %10, i8 %11, i16 noundef zeroext %13, ptr noundef %5) #26
  ret i1 %17
}